target datalayout = "e-m:e-p270:32:32-p271:32:32-p272:64:64-i64:64-i128:128-f80:128-n8:16:32:64-S128"
target triple = "x86_64-pc-linux-gnu"

%struct.sharedObjectsStruct = type { ptr, ptr, ptr, ptr, ptr, ptr, ptr, ptr, [4 x ptr], [4 x ptr], [4 x ptr], [4 x ptr], ptr, ptr, ptr, ptr, ptr, ptr, ptr, ptr, ptr, ptr, ptr, ptr, ptr, ptr, ptr, ptr, ptr, ptr, ptr, ptr, ptr, ptr, ptr, ptr, ptr, ptr, ptr, ptr, ptr, ptr, ptr, ptr, ptr, ptr, ptr, ptr, ptr, ptr, ptr, ptr, ptr, ptr, ptr, ptr, ptr, ptr, ptr, ptr, ptr, ptr, ptr, ptr, ptr, ptr, ptr, ptr, ptr, ptr, ptr, ptr, ptr, ptr, ptr, ptr, ptr, ptr, ptr, ptr, ptr, ptr, ptr, ptr, ptr, ptr, ptr, ptr, [10 x ptr], [10000 x ptr], [32 x ptr], [32 x ptr], [32 x ptr], [32 x ptr], ptr, ptr }
%struct.zskiplist = type { ptr, ptr, i64, i32 }
%struct.redisObject = type { i32, i32, ptr }
%struct.zset = type { ptr, ptr }
%struct.client = type { i64, i64, ptr, i8, i8, i8, i8, i32, ptr, ptr, ptr, ptr, ptr, i64, i64, i32, ptr, i32, i32, ptr, i64, ptr, ptr, ptr, ptr, ptr, i32, i32, i64, ptr, i64, ptr, i64, i64, i64, i32, ptr, i64, i64, i32, i32, i32, i32, i64, i64, ptr, i64, i64, i64, i64, i64, i64, i64, i64, [41 x i8], i32, ptr, i32, i32, i64, %struct.multiState, %struct.blockingState, i64, ptr, ptr, ptr, ptr, ptr, ptr, ptr, ptr, ptr, ptr, ptr, ptr, ptr, ptr, i64, ptr, i64, i32, ptr, ptr, ptr, i64, %struct.listNode, i64, i64, i32, i64, ptr }
%struct.multiState = type { ptr, i32, i32, i32, i64, i32 }
%struct.blockingState = type { i32, i64, i32, ptr, i32, i32, i64, ptr, ptr, i64 }
%struct.listNode = type { ptr, ptr, ptr }

@.str.1 = private unnamed_addr constant [9 x i8] c"t_zset.c\00", align 1
@shared = external global %struct.sharedObjectsStruct, align 8
@.str.9 = private unnamed_addr constant [28 x i8] c"Unknown sorted set encoding\00", align 1

; Function Attrs: nounwind uwtable
define dso_local i32 @zzlLength(ptr noundef %0) #0 {
  %2 = alloca ptr, align 8
  store ptr %0, ptr %2, align 8, !tbaa !11
  %3 = load ptr, ptr %2, align 8, !tbaa !11
  %4 = call i64 @lpLength(ptr noundef %3)
  %5 = udiv i64 %4, 2
  %6 = trunc i64 %5 to i32
  ret i32 %6
}

; Function Attrs: nounwind uwtable
define dso_local i64 @zsetLength(ptr noundef %0) #0 {
  %2 = alloca ptr, align 8
  %3 = alloca i64, align 8
  store ptr %0, ptr %2, align 8, !tbaa !78
  call void @llvm.lifetime.start.p0(i64 8, ptr %3) #12
  store i64 0, ptr %3, align 8, !tbaa !31
  %4 = load ptr, ptr %2, align 8, !tbaa !78
  %5 = load i32, ptr %4, align 8
  %6 = lshr i32 %5, 4
  %7 = and i32 %6, 15
  %8 = icmp eq i32 %7, 11
  br i1 %8, label %9, label %15

9:                                                ; preds = %1
  %10 = load ptr, ptr %2, align 8, !tbaa !78
  %11 = getelementptr inbounds nuw %struct.redisObject, ptr %10, i32 0, i32 2
  %12 = load ptr, ptr %11, align 8, !tbaa !84
  %13 = call i32 @zzlLength(ptr noundef %12)
  %14 = zext i32 %13 to i64
  store i64 %14, ptr %3, align 8, !tbaa !31
  br label %31

15:                                               ; preds = %1
  %16 = load ptr, ptr %2, align 8, !tbaa !78
  %17 = load i32, ptr %16, align 8
  %18 = lshr i32 %17, 4
  %19 = and i32 %18, 15
  %20 = icmp eq i32 %19, 7
  br i1 %20, label %21, label %29

21:                                               ; preds = %15
  %22 = load ptr, ptr %2, align 8, !tbaa !78
  %23 = getelementptr inbounds nuw %struct.redisObject, ptr %22, i32 0, i32 2
  %24 = load ptr, ptr %23, align 8, !tbaa !84
  %25 = getelementptr inbounds nuw %struct.zset, ptr %24, i32 0, i32 1
  %26 = load ptr, ptr %25, align 8, !tbaa !112
  %27 = getelementptr inbounds nuw %struct.zskiplist, ptr %26, i32 0, i32 2
  %28 = load i64, ptr %27, align 8, !tbaa !21
  store i64 %28, ptr %3, align 8, !tbaa !31
  br label %30

29:                                               ; preds = %15
  call void (ptr, i32, ptr, ...) @_serverPanic(ptr noundef @.str.1, i32 noundef 1210, ptr noundef @.str.9)
  call void @abort() #14
  unreachable

30:                                               ; preds = %21
  br label %31

31:                                               ; preds = %30, %9
  %32 = load i64, ptr %3, align 8, !tbaa !31
  call void @llvm.lifetime.end.p0(i64 8, ptr %3) #12
  ret i64 %32
}

; Function Attrs: nounwind uwtable
define dso_local void @blockingGenericZpopCommand(ptr noundef %0, ptr noundef %1, i32 noundef %2, i32 noundef %3, i32 noundef %4, i64 noundef %5, i32 noundef %6, i32 noundef %7) #0 {
  %9 = alloca ptr, align 8
  %10 = alloca ptr, align 8
  %11 = alloca i32, align 4
  %12 = alloca i32, align 4
  %13 = alloca i32, align 4
  %14 = alloca i64, align 8
  %15 = alloca i32, align 4
  %16 = alloca i32, align 4
  %17 = alloca ptr, align 8
  %18 = alloca ptr, align 8
  %19 = alloca i64, align 8
  %20 = alloca i32, align 4
  %21 = alloca i32, align 4
  %22 = alloca i64, align 8
  %23 = alloca ptr, align 8
  store ptr %0, ptr %9, align 8, !tbaa !150
  store ptr %1, ptr %10, align 8, !tbaa !233
  store i32 %2, ptr %11, align 4, !tbaa !5
  store i32 %3, ptr %12, align 4, !tbaa !5
  store i32 %4, ptr %13, align 4, !tbaa !5
  store i64 %5, ptr %14, align 8, !tbaa !31
  store i32 %6, ptr %15, align 4, !tbaa !5
  store i32 %7, ptr %16, align 4, !tbaa !5
  call void @llvm.lifetime.start.p0(i64 8, ptr %17) #12
  call void @llvm.lifetime.start.p0(i64 8, ptr %18) #12
  call void @llvm.lifetime.start.p0(i64 8, ptr %19) #12
  call void @llvm.lifetime.start.p0(i64 4, ptr %20) #12
  %24 = load ptr, ptr %9, align 8, !tbaa !150
  %25 = load ptr, ptr %9, align 8, !tbaa !150
  %26 = getelementptr inbounds nuw %struct.client, ptr %25, i32 0, i32 16
  %27 = load ptr, ptr %26, align 8, !tbaa !151
  %28 = load i32, ptr %13, align 4, !tbaa !5
  %29 = sext i32 %28 to i64
  %30 = getelementptr inbounds ptr, ptr %27, i64 %29
  %31 = load ptr, ptr %30, align 8, !tbaa !78
  %32 = call i32 @getTimeoutFromObjectOrReply(ptr noundef %24, ptr noundef %31, ptr noundef %19, i32 noundef 0)
  %33 = icmp ne i32 %32, 0
  br i1 %33, label %34, label %35

34:                                               ; preds = %8
  store i32 1, ptr %21, align 4
  br label %127

35:                                               ; preds = %8
  store i32 0, ptr %20, align 4, !tbaa !5
  br label %36

36:                                               ; preds = %111, %35
  %37 = load i32, ptr %20, align 4, !tbaa !5
  %38 = load i32, ptr %11, align 4, !tbaa !5
  %39 = icmp slt i32 %37, %38
  br i1 %39, label %40, label %114

40:                                               ; preds = %36
  %41 = load ptr, ptr %10, align 8, !tbaa !233
  %42 = load i32, ptr %20, align 4, !tbaa !5
  %43 = sext i32 %42 to i64
  %44 = getelementptr inbounds ptr, ptr %41, i64 %43
  %45 = load ptr, ptr %44, align 8, !tbaa !78
  store ptr %45, ptr %18, align 8, !tbaa !78
  %46 = load ptr, ptr %9, align 8, !tbaa !150
  %47 = getelementptr inbounds nuw %struct.client, ptr %46, i32 0, i32 8
  %48 = load ptr, ptr %47, align 8, !tbaa !164
  %49 = load ptr, ptr %18, align 8, !tbaa !78
  %50 = call ptr @lookupKeyWrite(ptr noundef %48, ptr noundef %49)
  store ptr %50, ptr %17, align 8, !tbaa !78
  %51 = load ptr, ptr %17, align 8, !tbaa !78
  %52 = icmp eq ptr %51, null
  br i1 %52, label %53, label %54

53:                                               ; preds = %40
  br label %111

54:                                               ; preds = %40
  %55 = load ptr, ptr %9, align 8, !tbaa !150
  %56 = load ptr, ptr %17, align 8, !tbaa !78
  %57 = call i32 @checkType(ptr noundef %55, ptr noundef %56, i32 noundef 3)
  %58 = icmp ne i32 %57, 0
  br i1 %58, label %59, label %60

59:                                               ; preds = %54
  store i32 1, ptr %21, align 4
  br label %127

60:                                               ; preds = %54
  call void @llvm.lifetime.start.p0(i64 8, ptr %22) #12
  %61 = load ptr, ptr %17, align 8, !tbaa !78
  %62 = call i64 @zsetLength(ptr noundef %61)
  store i64 %62, ptr %22, align 8, !tbaa !31
  %63 = load i64, ptr %22, align 8, !tbaa !31
  %64 = icmp eq i64 %63, 0
  br i1 %64, label %65, label %66

65:                                               ; preds = %60
  store i32 4, ptr %21, align 4
  br label %109

66:                                               ; preds = %60
  %67 = load ptr, ptr %9, align 8, !tbaa !150
  %68 = load i32, ptr %12, align 4, !tbaa !5
  %69 = load i64, ptr %14, align 8, !tbaa !31
  %70 = load i32, ptr %15, align 4, !tbaa !5
  %71 = load i32, ptr %16, align 4, !tbaa !5
  call void @genericZpopCommand(ptr noundef %67, ptr noundef %18, i32 noundef 1, i32 noundef %68, i32 noundef 1, i64 noundef %69, i32 noundef %70, i32 noundef %71, ptr noundef null)
  %72 = load i64, ptr %14, align 8, !tbaa !31
  %73 = icmp eq i64 %72, -1
  br i1 %73, label %74, label %85

74:                                               ; preds = %66
  %75 = load ptr, ptr %9, align 8, !tbaa !150
  %76 = load i32, ptr %12, align 4, !tbaa !5
  %77 = icmp eq i32 %76, 1
  br i1 %77, label %78, label %80

78:                                               ; preds = %74
  %79 = load ptr, ptr getelementptr inbounds nuw (%struct.sharedObjectsStruct, ptr @shared, i32 0, i32 47), align 8, !tbaa !237
  br label %82

80:                                               ; preds = %74
  %81 = load ptr, ptr getelementptr inbounds nuw (%struct.sharedObjectsStruct, ptr @shared, i32 0, i32 46), align 8, !tbaa !238
  br label %82

82:                                               ; preds = %80, %78
  %83 = phi ptr [ %79, %78 ], [ %81, %80 ]
  %84 = load ptr, ptr %18, align 8, !tbaa !78
  call void (ptr, i32, ...) @rewriteClientCommandVector(ptr noundef %75, i32 noundef 2, ptr noundef %83, ptr noundef %84)
  br label %108

85:                                               ; preds = %66
  call void @llvm.lifetime.start.p0(i64 8, ptr %23) #12
  %86 = load i64, ptr %14, align 8, !tbaa !31
  %87 = load i64, ptr %22, align 8, !tbaa !31
  %88 = icmp sgt i64 %86, %87
  br i1 %88, label %89, label %91

89:                                               ; preds = %85
  %90 = load i64, ptr %22, align 8, !tbaa !31
  br label %93

91:                                               ; preds = %85
  %92 = load i64, ptr %14, align 8, !tbaa !31
  br label %93

93:                                               ; preds = %91, %89
  %94 = phi i64 [ %90, %89 ], [ %92, %91 ]
  %95 = call ptr @createStringObjectFromLongLong(i64 noundef %94)
  store ptr %95, ptr %23, align 8, !tbaa !78
  %96 = load ptr, ptr %9, align 8, !tbaa !150
  %97 = load i32, ptr %12, align 4, !tbaa !5
  %98 = icmp eq i32 %97, 1
  br i1 %98, label %99, label %101

99:                                               ; preds = %93
  %100 = load ptr, ptr getelementptr inbounds nuw (%struct.sharedObjectsStruct, ptr @shared, i32 0, i32 47), align 8, !tbaa !237
  br label %103

101:                                              ; preds = %93
  %102 = load ptr, ptr getelementptr inbounds nuw (%struct.sharedObjectsStruct, ptr @shared, i32 0, i32 46), align 8, !tbaa !238
  br label %103

103:                                              ; preds = %101, %99
  %104 = phi ptr [ %100, %99 ], [ %102, %101 ]
  %105 = load ptr, ptr %18, align 8, !tbaa !78
  %106 = load ptr, ptr %23, align 8, !tbaa !78
  call void (ptr, i32, ...) @rewriteClientCommandVector(ptr noundef %96, i32 noundef 3, ptr noundef %104, ptr noundef %105, ptr noundef %106)
  %107 = load ptr, ptr %23, align 8, !tbaa !78
  call void @decrRefCount(ptr noundef %107)
  call void @llvm.lifetime.end.p0(i64 8, ptr %23) #12
  br label %108

108:                                              ; preds = %103, %82
  store i32 1, ptr %21, align 4
  br label %109

109:                                              ; preds = %108, %65
  call void @llvm.lifetime.end.p0(i64 8, ptr %22) #12
  %110 = load i32, ptr %21, align 4
  switch i32 %110, label %127 [
    i32 4, label %111
  ]

111:                                              ; preds = %109, %53
  %112 = load i32, ptr %20, align 4, !tbaa !5
  %113 = add nsw i32 %112, 1
  store i32 %113, ptr %20, align 4, !tbaa !5
  br label %36, !llvm.loop !239

114:                                              ; preds = %36
  %115 = load ptr, ptr %9, align 8, !tbaa !150
  %116 = getelementptr inbounds nuw %struct.client, ptr %115, i32 0, i32 1
  %117 = load i64, ptr %116, align 8, !tbaa !240
  %118 = and i64 %117, 2199023255552
  %119 = icmp ne i64 %118, 0
  br i1 %119, label %120, label %122

120:                                              ; preds = %114
  %121 = load ptr, ptr %9, align 8, !tbaa !150
  call void @addReplyNullArray(ptr noundef %121)
  store i32 1, ptr %21, align 4
  br label %127

122:                                              ; preds = %114
  %123 = load ptr, ptr %9, align 8, !tbaa !150
  %124 = load ptr, ptr %10, align 8, !tbaa !233
  %125 = load i32, ptr %11, align 4, !tbaa !5
  %126 = load i64, ptr %19, align 8, !tbaa !99
  call void @blockForKeys(ptr noundef %123, i32 noundef 6, ptr noundef %124, i32 noundef %125, i64 noundef %126, i32 noundef 0)
  store i32 0, ptr %21, align 4
  br label %127

127:                                              ; preds = %122, %120, %109, %59, %34
  call void @llvm.lifetime.end.p0(i64 4, ptr %20) #12
  call void @llvm.lifetime.end.p0(i64 8, ptr %19) #12
  call void @llvm.lifetime.end.p0(i64 8, ptr %18) #12
  call void @llvm.lifetime.end.p0(i64 8, ptr %17) #12
  %128 = load i32, ptr %21, align 4
  switch i32 %128, label %130 [
    i32 0, label %129
    i32 1, label %129
  ]

129:                                              ; preds = %127, %127
  ret void

130:                                              ; preds = %127
  unreachable
}