; Function Attrs: nounwind uwtable
define dso_local void @blockingGenericZpopCommand(ptr noundef %0, ptr noundef %1, i32 noundef %2, i32 noundef %3, i32 noundef %4, i64 noundef %5, i32 noundef %6, i32 noundef %7) local_unnamed_addr #0 {
  %9 = alloca ptr, align 8
  %10 = alloca i64, align 8
  call void @llvm.lifetime.start.p0(i64 8, ptr nonnull %9) #18
  call void @llvm.lifetime.start.p0(i64 8, ptr nonnull %10) #18
  %11 = getelementptr inbounds nuw i8, ptr %0, i64 96
  %12 = load ptr, ptr %11, align 8, !tbaa !136
  %13 = sext i32 %4 to i64
  %14 = getelementptr inbounds ptr, ptr %12, i64 %13
  %15 = load ptr, ptr %14, align 8, !tbaa !146
  %16 = call i32 @getTimeoutFromObjectOrReply(ptr noundef %0, ptr noundef %15, ptr noundef nonnull %10, i32 noundef 0) #18
  %.not = icmp eq i32 %16, 0
  br i1 %.not, label %.preheader, label %.loopexit

.preheader:                                       ; preds = %8
  %17 = icmp sgt i32 %2, 0
  br i1 %17, label %.lr.ph, label %._crit_edge

.lr.ph:                                           ; preds = %.preheader
  %18 = getelementptr inbounds nuw i8, ptr %0, i64 32
  %wide.trip.count = zext nneg i32 %2 to i64
  br label %19

19:                                               ; preds = %.lr.ph, %.critedge
  %indvars.iv = phi i64 [ 0, %.lr.ph ], [ %indvars.iv.next, %.critedge ]
  %20 = getelementptr inbounds nuw ptr, ptr %1, i64 %indvars.iv
  %21 = load ptr, ptr %20, align 8, !tbaa !146
  %22 = load ptr, ptr %18, align 8, !tbaa !150
  %23 = call ptr @lookupKeyWrite(ptr noundef %22, ptr noundef %21) #18
  %24 = icmp eq ptr %23, null
  br i1 %24, label %.critedge, label %25

25:                                               ; preds = %19
  %26 = call i32 @checkType(ptr noundef nonnull %0, ptr noundef nonnull %23, i32 noundef 3) #18
  %.not41 = icmp eq i32 %26, 0
  br i1 %.not41, label %27, label %.loopexit

27:                                               ; preds = %25
  %28 = load i32, ptr %23, align 8
  %29 = lshr i32 %28, 4
  %30 = and i32 %29, 15
  switch i32 %30, label %44 [
    i32 11, label %31
    i32 7, label %37
  ]

31:                                               ; preds = %27
  %32 = getelementptr inbounds nuw i8, ptr %23, i64 8
  %33 = load ptr, ptr %32, align 8, !tbaa !75
  %34 = call i64 @lpLength(ptr noundef %33) #18
  %35 = lshr i64 %34, 1
  %36 = and i64 %35, 4294967295
  br label %zsetLength.exit

37:                                               ; preds = %27
  %38 = getelementptr inbounds nuw i8, ptr %23, i64 8
  %39 = load ptr, ptr %38, align 8, !tbaa !75
  %40 = getelementptr inbounds nuw i8, ptr %39, i64 8
  %41 = load ptr, ptr %40, align 8, !tbaa !97
  %42 = getelementptr inbounds nuw i8, ptr %41, i64 16
  %43 = load i64, ptr %42, align 8, !tbaa !17
  br label %zsetLength.exit

44:                                               ; preds = %27
  call void (ptr, i32, ptr, ...) @_serverPanic(ptr noundef nonnull @.str.1, i32 noundef 1210, ptr noundef nonnull @.str.9) #18
  call void @abort() #19
  unreachable

zsetLength.exit:                                  ; preds = %31, %37
  %.0.i = phi i64 [ %36, %31 ], [ %43, %37 ]
  %45 = icmp eq i64 %.0.i, 0
  br i1 %45, label %.critedge, label %46

46:                                               ; preds = %zsetLength.exit
  store ptr %21, ptr %9, align 8
  call void @genericZpopCommand(ptr noundef nonnull %0, ptr noundef nonnull %9, i32 noundef 1, i32 noundef %3, i32 noundef 1, i64 noundef %5, i32 noundef %6, i32 noundef %7, ptr noundef null)
  %47 = icmp eq i64 %5, -1
  br i1 %47, label %48, label %53

48:                                               ; preds = %46
  %49 = icmp eq i32 %3, 1
  %50 = load ptr, ptr getelementptr inbounds nuw (i8, ptr @shared, i64 472), align 8
  %51 = load ptr, ptr getelementptr inbounds nuw (i8, ptr @shared, i64 464), align 8
  %52 = select i1 %49, ptr %50, ptr %51
  call void (ptr, i32, ...) @rewriteClientCommandVector(ptr noundef nonnull %0, i32 noundef 2, ptr noundef %52, ptr noundef %21) #18
  br label %.loopexit

53:                                               ; preds = %46
  %54 = call i64 @llvm.smin.i64(i64 %5, i64 %.0.i)
  %55 = call ptr @createStringObjectFromLongLong(i64 noundef %54) #18
  %56 = icmp eq i32 %3, 1
  %57 = load ptr, ptr getelementptr inbounds nuw (i8, ptr @shared, i64 472), align 8
  %58 = load ptr, ptr getelementptr inbounds nuw (i8, ptr @shared, i64 464), align 8
  %59 = select i1 %56, ptr %57, ptr %58
  call void (ptr, i32, ...) @rewriteClientCommandVector(ptr noundef nonnull %0, i32 noundef 3, ptr noundef %59, ptr noundef %21, ptr noundef %55) #18
  call void @decrRefCount(ptr noundef %55) #18
  br label %.loopexit

.critedge:                                        ; preds = %zsetLength.exit, %19
  %indvars.iv.next = add nuw nsw i64 %indvars.iv, 1
  %exitcond.not = icmp eq i64 %indvars.iv.next, %wide.trip.count
  br i1 %exitcond.not, label %._crit_edge, label %19, !llvm.loop !218

._crit_edge:                                      ; preds = %.critedge, %.preheader
  %60 = getelementptr inbounds nuw i8, ptr %0, i64 8
  %61 = load i64, ptr %60, align 8, !tbaa !219
  %62 = and i64 %61, 2199023255552
  %.not40 = icmp eq i64 %62, 0
  br i1 %.not40, label %64, label %63

63:                                               ; preds = %._crit_edge
  call void @addReplyNullArray(ptr noundef nonnull %0) #18
  br label %.loopexit

64:                                               ; preds = %._crit_edge
  %65 = load i64, ptr %10, align 8, !tbaa !88
  call void @blockForKeys(ptr noundef nonnull %0, i32 noundef 6, ptr noundef %1, i32 noundef %2, i64 noundef %65, i32 noundef 0) #18
  br label %.loopexit

.loopexit:                                        ; preds = %25, %53, %48, %8, %64, %63
  call void @llvm.lifetime.end.p0(i64 8, ptr nonnull %10) #18
  call void @llvm.lifetime.end.p0(i64 8, ptr nonnull %9) #18
  ret void
}